target datalayout = "e-m:e-p270:32:32-p271:32:32-p272:64:64-i64:64-i128:128-f80:128-n8:16:32:64-S128"
target triple = "x86_64-pc-linux-gnu"

%struct.darktable_t = type { %struct.dt_codepath_t, i32, i32, ptr, ptr, ptr, ptr, ptr, ptr, ptr, ptr, ptr, ptr, ptr, ptr, ptr, ptr, ptr, ptr, ptr, ptr, ptr, ptr, ptr, ptr, ptr, ptr, ptr, ptr, ptr, [64 x %struct.dt_pthread_mutex_t], %struct.dt_pthread_mutex_t, %struct.dt_pthread_mutex_t, %struct.dt_pthread_mutex_t, %struct.dt_pthread_mutex_t, %struct.dt_pthread_mutex_t, ptr, ptr, ptr, ptr, ptr, ptr, ptr, ptr, ptr, ptr, ptr, ptr, ptr, %struct.dt_lua_state_t, ptr, double, ptr, i32, [47 x i32], i32, i32, ptr, ptr, %struct.dt_sys_resources_t, %struct.dt_backthumb_t, %struct.dt_gimp_t }
%struct.dt_codepath_t = type { i8, [3 x i8] }
%struct.dt_pthread_mutex_t = type { %union.pthread_mutex_t }
%union.pthread_mutex_t = type { %struct.__pthread_mutex_s }
%struct.__pthread_mutex_s = type { i32, i32, i32, i32, i32, i16, i16, %struct.__pthread_internal_list }
%struct.__pthread_internal_list = type { ptr, ptr }
%struct.dt_lua_state_t = type { i32 }
%struct.dt_sys_resources_t = type { i64, i64, ptr, ptr, i32 }
%struct.dt_backthumb_t = type { double, double, i32, i32, i32, i32 }
%struct.dt_gimp_t = type { i32, ptr, ptr, i32, i32 }
%struct.dt_image_cache_t = type { %struct.dt_cache_t }
%struct.dt_cache_t = type { %struct.dt_pthread_mutex_t, i64, i64, i64, ptr, ptr, ptr, ptr, ptr, ptr }
%struct.dt_cache_entry_t = type { ptr, i64, i64, ptr, %union.pthread_rwlock_t, i32, i32 }
%union.pthread_rwlock_t = type { %struct.__pthread_rwlock_arch_t }
%struct.__pthread_rwlock_arch_t = type { i32, i32, i32, i32, i32, i32, i32, i32, i8, [7 x i8], i64, i32 }
%struct.dt_image_t = type { i32, i32, float, float, float, float, float, float, float, [64 x i8], [64 x i8], [128 x i8], [64 x i8], [64 x i8], [64 x i8], [64 x i8], i64, i32, %union.dt_image_correction_data_t, [64 x i8], [64 x i8], [64 x i8], [128 x i8], i32, [256 x i8], i32, i32, i32, i32, i32, i32, i32, i32, i32, i32, float, i32, i32, i32, i32, i32, i32, i64, i64, i64, i64, i32, [12 x i8], %struct.dt_iop_buffer_dsc_t, [9 x float], ptr, i32, i32, %struct.dt_image_raw_parameters_t, %struct.dt_image_geoloc_t, %struct._color_harmony_t, i16, [4 x i16], i32, i32, float, float, [4 x float], [4 x [3 x float]], [4 x float], ptr, ptr, i32, i32, [8 x i8] }
%union.dt_image_correction_data_t = type { %struct.anon.0 }
%struct.anon.0 = type { i32, float, [11 x float], [11 x float], [11 x float], [11 x float], [11 x float] }
%struct.dt_iop_buffer_dsc_t = type { i32, i32, i32, [6 x [6 x i8]], %struct.anon.3, [12 x i8], %struct.anon.4, [4 x float], i32, [12 x i8] }
%struct.anon.3 = type { i16, i16 }
%struct.anon.4 = type { i32, [12 x i8], [4 x float] }
%struct.dt_image_raw_parameters_t = type { i32 }
%struct.dt_image_geoloc_t = type { double, double, double }
%struct._color_harmony_t = type { i32, i32, i32 }

@darktable = external global %struct.darktable_t, align 8
@.str.2 = private unnamed_addr constant [52 x i8] c"[dt_image_cache_get] failed as not a valid imgid=%d\00", align 1
@.str.3 = private unnamed_addr constant [122 x i8] c"generated/home/dtcxzyw/WorkSpace/Projects/compilers/llvm-opt-benchmark/bench/darktable/darktable/src/common/image_cache.c\00", align 1

; Function Attrs: nounwind uwtable
define void @dt_image_cache_write_release(ptr noundef %0, ptr noundef %1, i32 noundef %2) #0 {
  %4 = alloca ptr, align 8
  %5 = alloca ptr, align 8
  %6 = alloca i32, align 4
  store ptr %0, ptr %4, align 8, !tbaa !6
  store ptr %1, ptr %5, align 8, !tbaa !61
  store i32 %2, ptr %6, align 4, !tbaa !11
  %7 = load ptr, ptr %4, align 8, !tbaa !6
  %8 = load ptr, ptr %5, align 8, !tbaa !61
  %9 = load i32, ptr %6, align 4, !tbaa !11
  call void @dt_image_cache_write_release_info(ptr noundef %7, ptr noundef %8, i32 noundef %9, ptr noundef null)
  ret void
}

; Function Attrs: nounwind uwtable
define void @dt_image_cache_read_release(ptr noundef %0, ptr noundef %1) #0 {
  %3 = alloca ptr, align 8
  %4 = alloca ptr, align 8
  store ptr %0, ptr %3, align 8, !tbaa !6
  store ptr %1, ptr %4, align 8, !tbaa !61
  %5 = load ptr, ptr %4, align 8, !tbaa !61
  %6 = icmp ne ptr %5, null
  br i1 %6, label %7, label %12

7:                                                ; preds = %2
  %8 = load ptr, ptr %4, align 8, !tbaa !61
  %9 = getelementptr inbounds nuw %struct.dt_image_t, ptr %8, i32 0, i32 40
  %10 = load i32, ptr %9, align 8, !tbaa !70
  %11 = icmp sgt i32 %10, 0
  br i1 %11, label %13, label %12

12:                                               ; preds = %7, %2
  br label %19

13:                                               ; preds = %7
  %14 = load ptr, ptr %3, align 8, !tbaa !6
  %15 = getelementptr inbounds nuw %struct.dt_image_cache_t, ptr %14, i32 0, i32 0
  %16 = load ptr, ptr %4, align 8, !tbaa !61
  %17 = getelementptr inbounds nuw %struct.dt_image_t, ptr %16, i32 0, i32 66
  %18 = load ptr, ptr %17, align 8, !tbaa !125
  call void @dt_cache_release_with_caller(ptr noundef %15, ptr noundef %18, ptr noundef @.str.3, i32 noundef 285)
  br label %19

19:                                               ; preds = %13, %12
  ret void
}

; Function Attrs: nounwind uwtable
define ptr @dt_image_cache_get(ptr noundef %0, i32 noundef %1, i8 noundef signext %2) #0 {
  %4 = alloca ptr, align 8
  %5 = alloca ptr, align 8
  %6 = alloca i32, align 4
  %7 = alloca i8, align 1
  %8 = alloca ptr, align 8
  %9 = alloca ptr, align 8
  store ptr %0, ptr %5, align 8, !tbaa !6
  store i32 %1, ptr %6, align 4, !tbaa !11
  store i8 %2, ptr %7, align 1, !tbaa !90
  %10 = load i32, ptr %6, align 4, !tbaa !11
  %11 = icmp sgt i32 %10, 0
  br i1 %11, label %26, label %12

12:                                               ; preds = %3
  br label %13

13:                                               ; preds = %12
  %14 = load i32, ptr getelementptr inbounds nuw (%struct.darktable_t, ptr @darktable, i32 0, i32 2), align 8, !tbaa !13
  %15 = and i32 1, %14
  %16 = icmp ne i32 %15, 0
  br i1 %16, label %17, label %24

17:                                               ; preds = %13
  %18 = load i32, ptr getelementptr inbounds nuw (%struct.darktable_t, ptr @darktable, i32 0, i32 2), align 8, !tbaa !13
  %19 = xor i32 %18, -1
  %20 = and i32 0, %19
  %21 = icmp ne i32 %20, 0
  br i1 %21, label %24, label %22

22:                                               ; preds = %17
  %23 = load i32, ptr %6, align 4, !tbaa !11
  call void (ptr, ...) @dt_print_ext(ptr noundef @.str.2, i32 noundef %23)
  br label %24

24:                                               ; preds = %22, %17, %13
  br label %25

25:                                               ; preds = %24
  store ptr null, ptr %4, align 8
  br label %39

26:                                               ; preds = %3
  call void @llvm.lifetime.start.p0(i64 8, ptr %8) #7
  %27 = load ptr, ptr %5, align 8, !tbaa !6
  %28 = getelementptr inbounds nuw %struct.dt_image_cache_t, ptr %27, i32 0, i32 0
  %29 = load i32, ptr %6, align 4, !tbaa !11
  %30 = load i8, ptr %7, align 1, !tbaa !90
  %31 = call ptr @dt_cache_get_with_caller(ptr noundef %28, i32 noundef %29, i8 noundef signext %30, ptr noundef @.str.3, i32 noundef 250)
  store ptr %31, ptr %8, align 8, !tbaa !57
  call void @llvm.lifetime.start.p0(i64 8, ptr %9) #7
  %32 = load ptr, ptr %8, align 8, !tbaa !57
  %33 = getelementptr inbounds nuw %struct.dt_cache_entry_t, ptr %32, i32 0, i32 0
  %34 = load ptr, ptr %33, align 8, !tbaa !63
  store ptr %34, ptr %9, align 8, !tbaa !61
  %35 = load ptr, ptr %8, align 8, !tbaa !57
  %36 = load ptr, ptr %9, align 8, !tbaa !61
  %37 = getelementptr inbounds nuw %struct.dt_image_t, ptr %36, i32 0, i32 66
  store ptr %35, ptr %37, align 8, !tbaa !125
  %38 = load ptr, ptr %9, align 8, !tbaa !61
  store ptr %38, ptr %4, align 8
  call void @llvm.lifetime.end.p0(i64 8, ptr %9) #7
  call void @llvm.lifetime.end.p0(i64 8, ptr %8) #7
  br label %39

39:                                               ; preds = %26, %25
  %40 = load ptr, ptr %4, align 8
  ret ptr %40
}

; Function Attrs: nounwind uwtable
define void @dt_image_cache_set_change_timestamp_from_image(ptr noundef %0, i32 noundef %1, i32 noundef %2) #0 {
  %4 = alloca ptr, align 8
  %5 = alloca i32, align 4
  %6 = alloca i32, align 4
  %7 = alloca ptr, align 8
  %8 = alloca i64, align 8
  %9 = alloca ptr, align 8
  %10 = alloca i32, align 4
  %11 = alloca ptr, align 8
  store ptr %0, ptr %4, align 8, !tbaa !6
  store i32 %1, ptr %5, align 4, !tbaa !11
  store i32 %2, ptr %6, align 4, !tbaa !11
  %12 = load i32, ptr %5, align 4, !tbaa !11
  %13 = icmp sgt i32 %12, 0
  br i1 %13, label %14, label %17

14:                                               ; preds = %3
  %15 = load i32, ptr %6, align 4, !tbaa !11
  %16 = icmp sgt i32 %15, 0
  br i1 %16, label %18, label %17

17:                                               ; preds = %14, %3
  br label %48

18:                                               ; preds = %14
  call void @llvm.lifetime.start.p0(i64 8, ptr %7) #7
  %19 = load ptr, ptr %4, align 8, !tbaa !6
  %20 = load i32, ptr %6, align 4, !tbaa !11
  %21 = call ptr @dt_image_cache_get(ptr noundef %19, i32 noundef %20, i8 noundef signext 114)
  store ptr %21, ptr %7, align 8, !tbaa !61
  call void @llvm.lifetime.start.p0(i64 8, ptr %8) #7
  %22 = load ptr, ptr %7, align 8, !tbaa !61
  %23 = getelementptr inbounds nuw %struct.dt_image_t, ptr %22, i32 0, i32 43
  %24 = load i64, ptr %23, align 8, !tbaa !117
  store i64 %24, ptr %8, align 8, !tbaa !134
  %25 = load ptr, ptr %4, align 8, !tbaa !6
  %26 = load ptr, ptr %7, align 8, !tbaa !61
  call void @dt_image_cache_read_release(ptr noundef %25, ptr noundef %26)
  call void @llvm.lifetime.start.p0(i64 8, ptr %9) #7
  %27 = load ptr, ptr %4, align 8, !tbaa !6
  %28 = getelementptr inbounds nuw %struct.dt_image_cache_t, ptr %27, i32 0, i32 0
  %29 = load i32, ptr %5, align 4, !tbaa !11
  %30 = call ptr @dt_cache_get_with_caller(ptr noundef %28, i32 noundef %29, i8 noundef signext 119, ptr noundef @.str.3, i32 noundef 470)
  store ptr %30, ptr %9, align 8, !tbaa !57
  %31 = load ptr, ptr %9, align 8, !tbaa !57
  %32 = icmp ne ptr %31, null
  br i1 %32, label %34, label %33

33:                                               ; preds = %18
  store i32 1, ptr %10, align 4
  br label %46

34:                                               ; preds = %18
  call void @llvm.lifetime.start.p0(i64 8, ptr %11) #7
  %35 = load ptr, ptr %9, align 8, !tbaa !57
  %36 = getelementptr inbounds nuw %struct.dt_cache_entry_t, ptr %35, i32 0, i32 0
  %37 = load ptr, ptr %36, align 8, !tbaa !63
  store ptr %37, ptr %11, align 8, !tbaa !61
  %38 = load ptr, ptr %9, align 8, !tbaa !57
  %39 = load ptr, ptr %11, align 8, !tbaa !61
  %40 = getelementptr inbounds nuw %struct.dt_image_t, ptr %39, i32 0, i32 66
  store ptr %38, ptr %40, align 8, !tbaa !125
  %41 = load i64, ptr %8, align 8, !tbaa !134
  %42 = load ptr, ptr %11, align 8, !tbaa !61
  %43 = getelementptr inbounds nuw %struct.dt_image_t, ptr %42, i32 0, i32 43
  store i64 %41, ptr %43, align 8, !tbaa !117
  %44 = load ptr, ptr %4, align 8, !tbaa !6
  %45 = load ptr, ptr %11, align 8, !tbaa !61
  call void @dt_image_cache_write_release(ptr noundef %44, ptr noundef %45, i32 noundef 1)
  call void @llvm.lifetime.end.p0(i64 8, ptr %11) #7
  store i32 0, ptr %10, align 4
  br label %46

46:                                               ; preds = %34, %33
  call void @llvm.lifetime.end.p0(i64 8, ptr %9) #7
  call void @llvm.lifetime.end.p0(i64 8, ptr %8) #7
  call void @llvm.lifetime.end.p0(i64 8, ptr %7) #7
  %47 = load i32, ptr %10, align 4
  switch i32 %47, label %49 [
    i32 0, label %48
    i32 1, label %48
  ]

48:                                               ; preds = %17, %46, %46
  ret void

49:                                               ; preds = %46
  unreachable
}