; Function Attrs: nounwind uwtable
define void @dt_image_cache_set_change_timestamp_from_image(ptr noundef %0, i32 noundef %1, i32 noundef %2) local_unnamed_addr #0 {
  %4 = icmp sgt i32 %1, 0
  %5 = icmp sgt i32 %2, 0
  %or.cond = and i1 %4, %5
  br i1 %or.cond, label %6, label %21

6:                                                ; preds = %3
  %7 = tail call ptr @dt_cache_get_with_caller(ptr noundef %0, i32 noundef %2, i8 noundef signext 114, ptr noundef nonnull @.str.3, i32 noundef 250) #8
  %8 = load ptr, ptr %7, align 8, !tbaa !56
  %9 = getelementptr inbounds nuw i8, ptr %8, i64 1832
  store ptr %7, ptr %9, align 8, !tbaa !113
  %10 = getelementptr inbounds nuw i8, ptr %8, i64 1448
  %11 = load i64, ptr %10, align 8, !tbaa !105
  %12 = getelementptr inbounds nuw i8, ptr %8, i64 1432
  %13 = load i32, ptr %12, align 8, !tbaa !63
  %14 = icmp sgt i32 %13, 0
  br i1 %14, label %15, label %dt_image_cache_read_release.exit

15:                                               ; preds = %6
  tail call void @dt_cache_release_with_caller(ptr noundef %0, ptr noundef nonnull %7, ptr noundef nonnull @.str.3, i32 noundef 285) #8
  br label %dt_image_cache_read_release.exit

dt_image_cache_read_release.exit:                 ; preds = %6, %15
  %16 = tail call ptr @dt_cache_get_with_caller(ptr noundef %0, i32 noundef %1, i8 noundef signext 119, ptr noundef nonnull @.str.3, i32 noundef 470) #8
  %.not = icmp eq ptr %16, null
  br i1 %.not, label %21, label %17

17:                                               ; preds = %dt_image_cache_read_release.exit
  %18 = load ptr, ptr %16, align 8, !tbaa !56
  %19 = getelementptr inbounds nuw i8, ptr %18, i64 1832
  store ptr %16, ptr %19, align 8, !tbaa !113
  %20 = getelementptr inbounds nuw i8, ptr %18, i64 1448
  store i64 %11, ptr %20, align 8, !tbaa !105
  tail call void @dt_image_cache_write_release_info(ptr noundef %0, ptr noundef %18, i32 noundef 1, ptr noundef null)
  br label %21

21:                                               ; preds = %17, %dt_image_cache_read_release.exit, %3
  ret void
}